target datalayout = "e-m:e-p270:32:32-p271:32:32-p272:64:64-i64:64-i128:128-f80:128-n8:16:32:64-S128"
target triple = "x86_64-pc-linux-gnu"

%struct.FrameRectangle = type { i32, i32, i32, i32 }
%struct.WebPAnimEncoderOptions = type { %struct.WebPMuxAnimParams, i32, i32, i32, i32, i32, [4 x i32] }
%struct.WebPMuxAnimParams = type { i32, i32 }
%struct.WebPAnimEncoder = type { i32, i32, %struct.WebPAnimEncoderOptions, %struct.FrameRectangle, %struct.WebPConfig, %struct.WebPConfig, ptr, %struct.WebPPicture, i32, %struct.WebPPicture, %struct.WebPPicture, ptr, i64, i64, i64, i64, i64, i32, i32, i32, i32, i32, i32, i32, i64, i64, ptr, [100 x i8] }
%struct.WebPConfig = type { i32, float, i32, i32, i32, float, i32, i32, i32, i32, i32, i32, i32, i32, i32, i32, i32, i32, i32, i32, i32, i32, i32, i32, i32, i32, i32, i32, i32 }
%struct.WebPPicture = type { i32, i32, i32, i32, ptr, ptr, ptr, i32, i32, ptr, i32, [2 x i32], ptr, i32, [3 x i32], ptr, ptr, i32, ptr, ptr, i32, ptr, ptr, [3 x i32], ptr, ptr, [8 x i32], ptr, ptr, [2 x ptr] }
%struct.EncodedFrame = type { %struct.WebPMuxFrameInfo, %struct.WebPMuxFrameInfo, i32 }
%struct.WebPMuxFrameInfo = type { %struct.WebPData, i32, i32, i32, i32, i32, i32, [1 x i32] }
%struct.WebPData = type { ptr, i64 }

; Function Attrs: inlinehint nounwind uwtable
define internal void @WebPDataInit(ptr noundef %0) #4 {
  %2 = alloca ptr, align 8
  store ptr %0, ptr %2, align 8, !tbaa !116
  %3 = load ptr, ptr %2, align 8, !tbaa !116
  %4 = icmp ne ptr %3, null
  br i1 %4, label %5, label %7

5:                                                ; preds = %1
  %6 = load ptr, ptr %2, align 8, !tbaa !116
  call void @llvm.memset.p0.i64(ptr align 8 %6, i8 0, i64 16, i1 false)
  br label %7

7:                                                ; preds = %5, %1
  ret void
}

; Function Attrs: inlinehint nounwind uwtable
define internal void @WebPDataClear(ptr noundef %0) #4 {
  %2 = alloca ptr, align 8
  store ptr %0, ptr %2, align 8, !tbaa !116
  %3 = load ptr, ptr %2, align 8, !tbaa !116
  %4 = icmp ne ptr %3, null
  br i1 %4, label %5, label %10

5:                                                ; preds = %1
  %6 = load ptr, ptr %2, align 8, !tbaa !116
  %7 = getelementptr inbounds nuw %struct.WebPData, ptr %6, i32 0, i32 0
  %8 = load ptr, ptr %7, align 8, !tbaa !90
  call void @WebPFree(ptr noundef %8)
  %9 = load ptr, ptr %2, align 8, !tbaa !116
  call void @WebPDataInit(ptr noundef %9)
  br label %10

10:                                               ; preds = %5, %1
  ret void
}

; Function Attrs: nounwind uwtable
define internal void @FrameRelease(ptr noundef %0) #0 {
  %2 = alloca ptr, align 8
  store ptr %0, ptr %2, align 8, !tbaa !52
  %3 = load ptr, ptr %2, align 8, !tbaa !52
  %4 = icmp ne ptr %3, null
  br i1 %4, label %5, label %13

5:                                                ; preds = %1
  %6 = load ptr, ptr %2, align 8, !tbaa !52
  %7 = getelementptr inbounds nuw %struct.EncodedFrame, ptr %6, i32 0, i32 0
  %8 = getelementptr inbounds nuw %struct.WebPMuxFrameInfo, ptr %7, i32 0, i32 0
  call void @WebPDataClear(ptr noundef %8)
  %9 = load ptr, ptr %2, align 8, !tbaa !52
  %10 = getelementptr inbounds nuw %struct.EncodedFrame, ptr %9, i32 0, i32 1
  %11 = getelementptr inbounds nuw %struct.WebPMuxFrameInfo, ptr %10, i32 0, i32 0
  call void @WebPDataClear(ptr noundef %11)
  %12 = load ptr, ptr %2, align 8, !tbaa !52
  call void @llvm.memset.p0.i64(ptr align 8 %12, i8 0, i64 104, i1 false)
  br label %13

13:                                               ; preds = %5, %1
  ret void
}

; Function Attrs: nounwind uwtable
define void @WebPAnimEncoderDelete(ptr noundef %0) #0 {
  %2 = alloca ptr, align 8
  %3 = alloca i64, align 8
  store ptr %0, ptr %2, align 8, !tbaa !17
  %4 = load ptr, ptr %2, align 8, !tbaa !17
  %5 = icmp ne ptr %4, null
  br i1 %5, label %6, label %42

6:                                                ; preds = %1
  %7 = load ptr, ptr %2, align 8, !tbaa !17
  %8 = getelementptr inbounds nuw %struct.WebPAnimEncoder, ptr %7, i32 0, i32 7
  call void @WebPPictureFree(ptr noundef %8)
  %9 = load ptr, ptr %2, align 8, !tbaa !17
  %10 = getelementptr inbounds nuw %struct.WebPAnimEncoder, ptr %9, i32 0, i32 9
  call void @WebPPictureFree(ptr noundef %10)
  %11 = load ptr, ptr %2, align 8, !tbaa !17
  %12 = getelementptr inbounds nuw %struct.WebPAnimEncoder, ptr %11, i32 0, i32 10
  call void @WebPPictureFree(ptr noundef %12)
  %13 = load ptr, ptr %2, align 8, !tbaa !17
  %14 = getelementptr inbounds nuw %struct.WebPAnimEncoder, ptr %13, i32 0, i32 11
  %15 = load ptr, ptr %14, align 8, !tbaa !39
  %16 = icmp ne ptr %15, null
  br i1 %16, label %17, label %37

17:                                               ; preds = %6
  call void @llvm.lifetime.start.p0(i64 8, ptr %3) #8
  store i64 0, ptr %3, align 8, !tbaa !64
  br label %18

18:                                               ; preds = %30, %17
  %19 = load i64, ptr %3, align 8, !tbaa !64
  %20 = load ptr, ptr %2, align 8, !tbaa !17
  %21 = getelementptr inbounds nuw %struct.WebPAnimEncoder, ptr %20, i32 0, i32 12
  %22 = load i64, ptr %21, align 8, !tbaa !38
  %23 = icmp ult i64 %19, %22
  br i1 %23, label %24, label %33

24:                                               ; preds = %18
  %25 = load ptr, ptr %2, align 8, !tbaa !17
  %26 = getelementptr inbounds nuw %struct.WebPAnimEncoder, ptr %25, i32 0, i32 11
  %27 = load ptr, ptr %26, align 8, !tbaa !39
  %28 = load i64, ptr %3, align 8, !tbaa !64
  %29 = getelementptr inbounds nuw %struct.EncodedFrame, ptr %27, i64 %28
  call void @FrameRelease(ptr noundef %29)
  br label %30

30:                                               ; preds = %24
  %31 = load i64, ptr %3, align 8, !tbaa !64
  %32 = add i64 %31, 1
  store i64 %32, ptr %3, align 8, !tbaa !64
  br label %18, !llvm.loop !65

33:                                               ; preds = %18
  %34 = load ptr, ptr %2, align 8, !tbaa !17
  %35 = getelementptr inbounds nuw %struct.WebPAnimEncoder, ptr %34, i32 0, i32 11
  %36 = load ptr, ptr %35, align 8, !tbaa !39
  call void @WebPSafeFree(ptr noundef %36)
  call void @llvm.lifetime.end.p0(i64 8, ptr %3) #8
  br label %37

37:                                               ; preds = %33, %6
  %38 = load ptr, ptr %2, align 8, !tbaa !17
  %39 = getelementptr inbounds nuw %struct.WebPAnimEncoder, ptr %38, i32 0, i32 26
  %40 = load ptr, ptr %39, align 8, !tbaa !40
  call void @WebPMuxDelete(ptr noundef %40)
  %41 = load ptr, ptr %2, align 8, !tbaa !17
  call void @WebPSafeFree(ptr noundef %41)
  br label %42

42:                                               ; preds = %37, %1
  ret void
}