; Function Attrs: nounwind uwtable
define void @WebPAnimEncoderDelete(ptr noundef %0) local_unnamed_addr #1 {
  %.not = icmp eq ptr %0, null
  br i1 %.not, label %24, label %2

2:                                                ; preds = %1
  %3 = getelementptr inbounds nuw i8, ptr %0, i64 312
  tail call void @WebPPictureFree(ptr noundef nonnull %3) #14
  %4 = getelementptr inbounds nuw i8, ptr %0, i64 576
  tail call void @WebPPictureFree(ptr noundef nonnull %4) #14
  %5 = getelementptr inbounds nuw i8, ptr %0, i64 832
  tail call void @WebPPictureFree(ptr noundef nonnull %5) #14
  %6 = getelementptr inbounds nuw i8, ptr %0, i64 1088
  %7 = load ptr, ptr %6, align 8, !tbaa !41
  %.not13 = icmp eq ptr %7, null
  br i1 %.not13, label %21, label %.preheader

.preheader:                                       ; preds = %2
  %8 = getelementptr inbounds nuw i8, ptr %0, i64 1096
  %9 = load i64, ptr %8, align 8, !tbaa !40
  %.not15 = icmp eq i64 %9, 0
  br i1 %.not15, label %._crit_edge, label %.lr.ph.split

.lr.ph.split:                                     ; preds = %.preheader, %FrameRelease.exit
  %10 = phi i64 [ %17, %FrameRelease.exit ], [ %9, %.preheader ]
  %.014 = phi i64 [ %18, %FrameRelease.exit ], [ 0, %.preheader ]
  %11 = load ptr, ptr %6, align 8, !tbaa !41
  %.not.i = icmp eq ptr %11, null
  br i1 %.not.i, label %FrameRelease.exit, label %12

12:                                               ; preds = %.lr.ph.split
  %13 = getelementptr inbounds nuw %struct.EncodedFrame, ptr %11, i64 %.014
  %14 = load ptr, ptr %13, align 8, !tbaa !55
  tail call void @WebPFree(ptr noundef %14) #14
  tail call void @llvm.memset.p0.i64(ptr noundef nonnull align 8 dereferenceable(16) %13, i8 0, i64 16, i1 false)
  %15 = getelementptr inbounds nuw i8, ptr %13, i64 48
  %16 = load ptr, ptr %15, align 8, !tbaa !55
  tail call void @WebPFree(ptr noundef %16) #14
  tail call void @llvm.memset.p0.i64(ptr noundef nonnull align 8 dereferenceable(104) %13, i8 0, i64 104, i1 false)
  %.pre = load i64, ptr %8, align 8, !tbaa !40
  br label %FrameRelease.exit

FrameRelease.exit:                                ; preds = %.lr.ph.split, %12
  %17 = phi i64 [ %10, %.lr.ph.split ], [ %.pre, %12 ]
  %18 = add nuw i64 %.014, 1
  %19 = icmp ult i64 %18, %17
  br i1 %19, label %.lr.ph.split, label %._crit_edge.loopexit16, !llvm.loop !57

._crit_edge.loopexit16:                           ; preds = %FrameRelease.exit
  %.pre17 = load ptr, ptr %6, align 8, !tbaa !41
  br label %._crit_edge

._crit_edge:                                      ; preds = %._crit_edge.loopexit16, %.preheader
  %20 = phi ptr [ %.pre17, %._crit_edge.loopexit16 ], [ %7, %.preheader ]
  tail call void @WebPSafeFree(ptr noundef %20) #14
  br label %21

21:                                               ; preds = %._crit_edge, %2
  %22 = getelementptr inbounds nuw i8, ptr %0, i64 1184
  %23 = load ptr, ptr %22, align 8, !tbaa !42
  tail call void @WebPMuxDelete(ptr noundef %23) #14
  tail call void @WebPSafeFree(ptr noundef nonnull %0) #14
  br label %24

24:                                               ; preds = %21, %1
  ret void
}